target datalayout = "e-m:e-p270:32:32-p271:32:32-p272:64:64-i64:64-i128:128-f80:128-n8:16:32:64-S128"
target triple = "x86_64-pc-linux-gnu"

@ff_crop_tab = external hidden constant [2304 x i8], align 16

; Function Attrs: nounwind uwtable
define internal void @avg_rv30_tpel8_hhvv_lowpass(ptr noundef %0, ptr noundef %1, i32 noundef %2, i32 noundef %3) #3 {
  %5 = alloca ptr, align 8
  %6 = alloca ptr, align 8
  %7 = alloca i32, align 4
  %8 = alloca i32, align 4
  %9 = alloca i32, align 4
  %10 = alloca i32, align 4
  %11 = alloca ptr, align 8
  %12 = alloca i32, align 4
  %13 = alloca i32, align 4
  store ptr %0, ptr %5, align 8, !tbaa !10
  store ptr %1, ptr %6, align 8, !tbaa !10
  store i32 %2, ptr %7, align 4, !tbaa !14
  store i32 %3, ptr %8, align 4, !tbaa !14
  call void @llvm.lifetime.start.p0(i64 4, ptr %9) #4
  store i32 8, ptr %9, align 4, !tbaa !14
  call void @llvm.lifetime.start.p0(i64 4, ptr %10) #4
  store i32 8, ptr %10, align 4, !tbaa !14
  call void @llvm.lifetime.start.p0(i64 8, ptr %11) #4
  store ptr getelementptr inbounds (i8, ptr @ff_crop_tab, i64 1024), ptr %11, align 8, !tbaa !10
  call void @llvm.lifetime.start.p0(i64 4, ptr %12) #4
  call void @llvm.lifetime.start.p0(i64 4, ptr %13) #4
  store i32 0, ptr %13, align 4, !tbaa !14
  br label %14

14:                                               ; preds = %158, %4
  %15 = load i32, ptr %13, align 4, !tbaa !14
  %16 = icmp slt i32 %15, 8
  br i1 %16, label %17, label %161

17:                                               ; preds = %14
  store i32 0, ptr %12, align 4, !tbaa !14
  br label %18

18:                                               ; preds = %146, %17
  %19 = load i32, ptr %12, align 4, !tbaa !14
  %20 = icmp slt i32 %19, 8
  br i1 %20, label %21, label %149

21:                                               ; preds = %18
  %22 = load ptr, ptr %5, align 8, !tbaa !10
  %23 = load i32, ptr %12, align 4, !tbaa !14
  %24 = sext i32 %23 to i64
  %25 = getelementptr inbounds i8, ptr %22, i64 %24
  %26 = load i8, ptr %25, align 1, !tbaa !16
  %27 = zext i8 %26 to i32
  %28 = load ptr, ptr %11, align 8, !tbaa !10
  %29 = load ptr, ptr %6, align 8, !tbaa !10
  %30 = load i32, ptr %12, align 4, !tbaa !14
  %31 = load i32, ptr %8, align 4, !tbaa !14
  %32 = mul nsw i32 %31, 0
  %33 = add nsw i32 %30, %32
  %34 = sext i32 %33 to i64
  %35 = getelementptr inbounds i8, ptr %29, i64 %34
  %36 = load i8, ptr %35, align 1, !tbaa !16
  %37 = zext i8 %36 to i32
  %38 = mul nsw i32 36, %37
  %39 = load ptr, ptr %6, align 8, !tbaa !10
  %40 = load i32, ptr %12, align 4, !tbaa !14
  %41 = add nsw i32 %40, 1
  %42 = load i32, ptr %8, align 4, !tbaa !14
  %43 = mul nsw i32 %42, 0
  %44 = add nsw i32 %41, %43
  %45 = sext i32 %44 to i64
  %46 = getelementptr inbounds i8, ptr %39, i64 %45
  %47 = load i8, ptr %46, align 1, !tbaa !16
  %48 = zext i8 %47 to i32
  %49 = mul nsw i32 54, %48
  %50 = add nsw i32 %38, %49
  %51 = load ptr, ptr %6, align 8, !tbaa !10
  %52 = load i32, ptr %12, align 4, !tbaa !14
  %53 = add nsw i32 %52, 2
  %54 = load i32, ptr %8, align 4, !tbaa !14
  %55 = mul nsw i32 %54, 0
  %56 = add nsw i32 %53, %55
  %57 = sext i32 %56 to i64
  %58 = getelementptr inbounds i8, ptr %51, i64 %57
  %59 = load i8, ptr %58, align 1, !tbaa !16
  %60 = zext i8 %59 to i32
  %61 = mul nsw i32 6, %60
  %62 = add nsw i32 %50, %61
  %63 = load ptr, ptr %6, align 8, !tbaa !10
  %64 = load i32, ptr %12, align 4, !tbaa !14
  %65 = load i32, ptr %8, align 4, !tbaa !14
  %66 = mul nsw i32 %65, 1
  %67 = add nsw i32 %64, %66
  %68 = sext i32 %67 to i64
  %69 = getelementptr inbounds i8, ptr %63, i64 %68
  %70 = load i8, ptr %69, align 1, !tbaa !16
  %71 = zext i8 %70 to i32
  %72 = mul nsw i32 54, %71
  %73 = add nsw i32 %62, %72
  %74 = load ptr, ptr %6, align 8, !tbaa !10
  %75 = load i32, ptr %12, align 4, !tbaa !14
  %76 = add nsw i32 %75, 1
  %77 = load i32, ptr %8, align 4, !tbaa !14
  %78 = mul nsw i32 %77, 1
  %79 = add nsw i32 %76, %78
  %80 = sext i32 %79 to i64
  %81 = getelementptr inbounds i8, ptr %74, i64 %80
  %82 = load i8, ptr %81, align 1, !tbaa !16
  %83 = zext i8 %82 to i32
  %84 = mul nsw i32 81, %83
  %85 = add nsw i32 %73, %84
  %86 = load ptr, ptr %6, align 8, !tbaa !10
  %87 = load i32, ptr %12, align 4, !tbaa !14
  %88 = add nsw i32 %87, 2
  %89 = load i32, ptr %8, align 4, !tbaa !14
  %90 = mul nsw i32 %89, 1
  %91 = add nsw i32 %88, %90
  %92 = sext i32 %91 to i64
  %93 = getelementptr inbounds i8, ptr %86, i64 %92
  %94 = load i8, ptr %93, align 1, !tbaa !16
  %95 = zext i8 %94 to i32
  %96 = mul nsw i32 9, %95
  %97 = add nsw i32 %85, %96
  %98 = load ptr, ptr %6, align 8, !tbaa !10
  %99 = load i32, ptr %12, align 4, !tbaa !14
  %100 = load i32, ptr %8, align 4, !tbaa !14
  %101 = mul nsw i32 %100, 2
  %102 = add nsw i32 %99, %101
  %103 = sext i32 %102 to i64
  %104 = getelementptr inbounds i8, ptr %98, i64 %103
  %105 = load i8, ptr %104, align 1, !tbaa !16
  %106 = zext i8 %105 to i32
  %107 = mul nsw i32 6, %106
  %108 = add nsw i32 %97, %107
  %109 = load ptr, ptr %6, align 8, !tbaa !10
  %110 = load i32, ptr %12, align 4, !tbaa !14
  %111 = add nsw i32 %110, 1
  %112 = load i32, ptr %8, align 4, !tbaa !14
  %113 = mul nsw i32 %112, 2
  %114 = add nsw i32 %111, %113
  %115 = sext i32 %114 to i64
  %116 = getelementptr inbounds i8, ptr %109, i64 %115
  %117 = load i8, ptr %116, align 1, !tbaa !16
  %118 = zext i8 %117 to i32
  %119 = mul nsw i32 9, %118
  %120 = add nsw i32 %108, %119
  %121 = load ptr, ptr %6, align 8, !tbaa !10
  %122 = load i32, ptr %12, align 4, !tbaa !14
  %123 = add nsw i32 %122, 2
  %124 = load i32, ptr %8, align 4, !tbaa !14
  %125 = mul nsw i32 %124, 2
  %126 = add nsw i32 %123, %125
  %127 = sext i32 %126 to i64
  %128 = getelementptr inbounds i8, ptr %121, i64 %127
  %129 = load i8, ptr %128, align 1, !tbaa !16
  %130 = zext i8 %129 to i32
  %131 = add nsw i32 %120, %130
  %132 = add nsw i32 %131, 128
  %133 = ashr i32 %132, 8
  %134 = sext i32 %133 to i64
  %135 = getelementptr inbounds i8, ptr %28, i64 %134
  %136 = load i8, ptr %135, align 1, !tbaa !16
  %137 = zext i8 %136 to i32
  %138 = add nsw i32 %27, %137
  %139 = add nsw i32 %138, 1
  %140 = ashr i32 %139, 1
  %141 = trunc i32 %140 to i8
  %142 = load ptr, ptr %5, align 8, !tbaa !10
  %143 = load i32, ptr %12, align 4, !tbaa !14
  %144 = sext i32 %143 to i64
  %145 = getelementptr inbounds i8, ptr %142, i64 %144
  store i8 %141, ptr %145, align 1, !tbaa !16
  br label %146

146:                                              ; preds = %21
  %147 = load i32, ptr %12, align 4, !tbaa !14
  %148 = add nsw i32 %147, 1
  store i32 %148, ptr %12, align 4, !tbaa !14
  br label %18, !llvm.loop !36

149:                                              ; preds = %18
  %150 = load i32, ptr %8, align 4, !tbaa !14
  %151 = load ptr, ptr %6, align 8, !tbaa !10
  %152 = sext i32 %150 to i64
  %153 = getelementptr inbounds i8, ptr %151, i64 %152
  store ptr %153, ptr %6, align 8, !tbaa !10
  %154 = load i32, ptr %7, align 4, !tbaa !14
  %155 = load ptr, ptr %5, align 8, !tbaa !10
  %156 = sext i32 %154 to i64
  %157 = getelementptr inbounds i8, ptr %155, i64 %156
  store ptr %157, ptr %5, align 8, !tbaa !10
  br label %158

158:                                              ; preds = %149
  %159 = load i32, ptr %13, align 4, !tbaa !14
  %160 = add nsw i32 %159, 1
  store i32 %160, ptr %13, align 4, !tbaa !14
  br label %14, !llvm.loop !37

161:                                              ; preds = %14
  call void @llvm.lifetime.end.p0(i64 4, ptr %13) #4
  call void @llvm.lifetime.end.p0(i64 4, ptr %12) #4
  call void @llvm.lifetime.end.p0(i64 8, ptr %11) #4
  call void @llvm.lifetime.end.p0(i64 4, ptr %10) #4
  call void @llvm.lifetime.end.p0(i64 4, ptr %9) #4
  ret void
}

; Function Attrs: nounwind uwtable
define internal void @avg_rv30_tpel16_hhvv_lowpass(ptr noundef %0, ptr noundef %1, i32 noundef %2, i32 noundef %3) #3 {
  %5 = alloca ptr, align 8
  %6 = alloca ptr, align 8
  %7 = alloca i32, align 4
  %8 = alloca i32, align 4
  store ptr %0, ptr %5, align 8, !tbaa !10
  store ptr %1, ptr %6, align 8, !tbaa !10
  store i32 %2, ptr %7, align 4, !tbaa !14
  store i32 %3, ptr %8, align 4, !tbaa !14
  %9 = load ptr, ptr %5, align 8, !tbaa !10
  %10 = load ptr, ptr %6, align 8, !tbaa !10
  %11 = load i32, ptr %7, align 4, !tbaa !14
  %12 = load i32, ptr %8, align 4, !tbaa !14
  call void @avg_rv30_tpel8_hhvv_lowpass(ptr noundef %9, ptr noundef %10, i32 noundef %11, i32 noundef %12)
  %13 = load ptr, ptr %5, align 8, !tbaa !10
  %14 = getelementptr inbounds i8, ptr %13, i64 8
  %15 = load ptr, ptr %6, align 8, !tbaa !10
  %16 = getelementptr inbounds i8, ptr %15, i64 8
  %17 = load i32, ptr %7, align 4, !tbaa !14
  %18 = load i32, ptr %8, align 4, !tbaa !14
  call void @avg_rv30_tpel8_hhvv_lowpass(ptr noundef %14, ptr noundef %16, i32 noundef %17, i32 noundef %18)
  %19 = load i32, ptr %8, align 4, !tbaa !14
  %20 = mul nsw i32 8, %19
  %21 = load ptr, ptr %6, align 8, !tbaa !10
  %22 = sext i32 %20 to i64
  %23 = getelementptr inbounds i8, ptr %21, i64 %22
  store ptr %23, ptr %6, align 8, !tbaa !10
  %24 = load i32, ptr %7, align 4, !tbaa !14
  %25 = mul nsw i32 8, %24
  %26 = load ptr, ptr %5, align 8, !tbaa !10
  %27 = sext i32 %25 to i64
  %28 = getelementptr inbounds i8, ptr %26, i64 %27
  store ptr %28, ptr %5, align 8, !tbaa !10
  %29 = load ptr, ptr %5, align 8, !tbaa !10
  %30 = load ptr, ptr %6, align 8, !tbaa !10
  %31 = load i32, ptr %7, align 4, !tbaa !14
  %32 = load i32, ptr %8, align 4, !tbaa !14
  call void @avg_rv30_tpel8_hhvv_lowpass(ptr noundef %29, ptr noundef %30, i32 noundef %31, i32 noundef %32)
  %33 = load ptr, ptr %5, align 8, !tbaa !10
  %34 = getelementptr inbounds i8, ptr %33, i64 8
  %35 = load ptr, ptr %6, align 8, !tbaa !10
  %36 = getelementptr inbounds i8, ptr %35, i64 8
  %37 = load i32, ptr %7, align 4, !tbaa !14
  %38 = load i32, ptr %8, align 4, !tbaa !14
  call void @avg_rv30_tpel8_hhvv_lowpass(ptr noundef %34, ptr noundef %36, i32 noundef %37, i32 noundef %38)
  ret void
}

; Function Attrs: nounwind uwtable
define internal void @avg_rv30_tpel16_mc22_c(ptr noundef %0, ptr noundef %1, i64 noundef %2) #3 {
  %4 = alloca ptr, align 8
  %5 = alloca ptr, align 8
  %6 = alloca i64, align 8
  store ptr %0, ptr %4, align 8, !tbaa !10
  store ptr %1, ptr %5, align 8, !tbaa !10
  store i64 %2, ptr %6, align 8, !tbaa !12
  %7 = load ptr, ptr %4, align 8, !tbaa !10
  %8 = load ptr, ptr %5, align 8, !tbaa !10
  %9 = load i64, ptr %6, align 8, !tbaa !12
  %10 = trunc i64 %9 to i32
  %11 = load i64, ptr %6, align 8, !tbaa !12
  %12 = trunc i64 %11 to i32
  call void @avg_rv30_tpel16_hhvv_lowpass(ptr noundef %7, ptr noundef %8, i32 noundef %10, i32 noundef %12)
  ret void
}