; Function Attrs: nofree norecurse nosync nounwind memory(argmem: readwrite) uwtable
define internal void @avg_rv30_tpel16_mc22_c(ptr noundef captures(none) %0, ptr noundef readonly captures(none) %1, i64 noundef %2) #3 {
  %4 = trunc i64 %2 to i32
  %5 = shl nsw i32 %4, 1
  %sext = shl i64 %2, 32
  %6 = ashr exact i64 %sext, 32
  %7 = sext i32 %5 to i64
  br label %.preheader.i.i

.preheader.i.i:                                   ; preds = %50, %3
  %.049.i.i = phi i32 [ 0, %3 ], [ %52, %50 ]
  %.04048.i.i = phi ptr [ %0, %3 ], [ %51, %50 ]
  %.04147.i.i = phi ptr [ %1, %3 ], [ %invariant.gep.i.i, %50 ]
  %invariant.gep.i.i = getelementptr i8, ptr %.04147.i.i, i64 %6
  %invariant.gep56.i.i = getelementptr i8, ptr %.04147.i.i, i64 %7
  br label %8

8:                                                ; preds = %8, %.preheader.i.i
  %indvars.iv.i.i = phi i64 [ 0, %.preheader.i.i ], [ %indvars.iv.next.i.i, %8 ]
  %9 = getelementptr inbounds nuw i8, ptr %.04048.i.i, i64 %indvars.iv.i.i
  %10 = load i8, ptr %9, align 1, !tbaa !8
  %11 = zext i8 %10 to i16
  %12 = getelementptr inbounds nuw i8, ptr %.04147.i.i, i64 %indvars.iv.i.i
  %13 = load i8, ptr %12, align 1, !tbaa !8
  %14 = zext i8 %13 to i64
  %15 = mul nuw nsw i64 %14, 36
  %indvars.iv.next.i.i = add nuw nsw i64 %indvars.iv.i.i, 1
  %16 = getelementptr inbounds nuw i8, ptr %.04147.i.i, i64 %indvars.iv.next.i.i
  %17 = load i8, ptr %16, align 1, !tbaa !8
  %18 = zext i8 %17 to i64
  %19 = add nuw nsw i64 %indvars.iv.i.i, 2
  %20 = getelementptr inbounds nuw i8, ptr %.04147.i.i, i64 %19
  %21 = load i8, ptr %20, align 1, !tbaa !8
  %22 = zext i8 %21 to i64
  %gep.i.i = getelementptr i8, ptr %invariant.gep.i.i, i64 %indvars.iv.i.i
  %23 = load i8, ptr %gep.i.i, align 1, !tbaa !8
  %24 = zext i8 %23 to i64
  %gep53.i.i = getelementptr i8, ptr %invariant.gep.i.i, i64 %indvars.iv.next.i.i
  %25 = load i8, ptr %gep53.i.i, align 1, !tbaa !8
  %26 = zext i8 %25 to i64
  %27 = mul nuw nsw i64 %26, 81
  %gep55.i.i = getelementptr i8, ptr %invariant.gep.i.i, i64 %19
  %28 = load i8, ptr %gep55.i.i, align 1, !tbaa !8
  %29 = zext i8 %28 to i64
  %gep57.i.i = getelementptr i8, ptr %invariant.gep56.i.i, i64 %indvars.iv.i.i
  %30 = load i8, ptr %gep57.i.i, align 1, !tbaa !8
  %31 = zext i8 %30 to i64
  %gep59.i.i = getelementptr i8, ptr %invariant.gep56.i.i, i64 %indvars.iv.next.i.i
  %32 = load i8, ptr %gep59.i.i, align 1, !tbaa !8
  %33 = zext i8 %32 to i64
  %gep61.i.i = getelementptr i8, ptr %invariant.gep56.i.i, i64 %19
  %34 = load i8, ptr %gep61.i.i, align 1, !tbaa !8
  %35 = zext i8 %34 to i64
  %reass.add.i.i = add nuw nsw i64 %33, %29
  %reass.mul.i.i = mul nuw nsw i64 %reass.add.i.i, 9
  %reass.add42.i.i = add nuw nsw i64 %31, %22
  %reass.mul43.i.i = mul nuw nsw i64 %reass.add42.i.i, 6
  %reass.add44.i.i = add nuw nsw i64 %24, %18
  %reass.mul45.i.i = mul nuw nsw i64 %reass.add44.i.i, 54
  %36 = add nuw nsw i64 %15, 128
  %37 = add nuw nsw i64 %36, %27
  %38 = add nuw nsw i64 %37, %reass.mul45.i.i
  %39 = add nuw nsw i64 %38, %35
  %40 = add nuw nsw i64 %39, %reass.mul43.i.i
  %41 = add nuw nsw i64 %40, %reass.mul.i.i
  %42 = lshr i64 %41, 8
  %43 = getelementptr inbounds nuw i8, ptr getelementptr inbounds nuw (i8, ptr @ff_crop_tab, i64 1024), i64 %42
  %44 = load i8, ptr %43, align 1, !tbaa !8
  %45 = zext i8 %44 to i16
  %46 = add nuw nsw i16 %11, 1
  %47 = add nuw nsw i16 %46, %45
  %48 = lshr i16 %47, 1
  %49 = trunc nuw i16 %48 to i8
  store i8 %49, ptr %9, align 1, !tbaa !8
  %exitcond.not.i.i = icmp eq i64 %indvars.iv.next.i.i, 8
  br i1 %exitcond.not.i.i, label %50, label %8, !llvm.loop !24

50:                                               ; preds = %8
  %51 = getelementptr inbounds i8, ptr %.04048.i.i, i64 %6
  %52 = add nuw nsw i32 %.049.i.i, 1
  %exitcond51.not.i.i = icmp eq i32 %52, 8
  br i1 %exitcond51.not.i.i, label %avg_rv30_tpel8_hhvv_lowpass.exit.i, label %.preheader.i.i, !llvm.loop !25

avg_rv30_tpel8_hhvv_lowpass.exit.i:               ; preds = %50
  %53 = getelementptr inbounds nuw i8, ptr %0, i64 8
  %54 = getelementptr inbounds nuw i8, ptr %1, i64 8
  br label %.preheader.i19.i

.preheader.i19.i:                                 ; preds = %97, %avg_rv30_tpel8_hhvv_lowpass.exit.i
  %.049.i20.i = phi i32 [ 0, %avg_rv30_tpel8_hhvv_lowpass.exit.i ], [ %99, %97 ]
  %.04048.i21.i = phi ptr [ %53, %avg_rv30_tpel8_hhvv_lowpass.exit.i ], [ %98, %97 ]
  %.04147.i22.i = phi ptr [ %54, %avg_rv30_tpel8_hhvv_lowpass.exit.i ], [ %invariant.gep.i23.i, %97 ]
  %invariant.gep.i23.i = getelementptr i8, ptr %.04147.i22.i, i64 %6
  %invariant.gep56.i26.i = getelementptr i8, ptr %.04147.i22.i, i64 %7
  br label %55

55:                                               ; preds = %55, %.preheader.i19.i
  %indvars.iv.i29.i = phi i64 [ 0, %.preheader.i19.i ], [ %indvars.iv.next.i30.i, %55 ]
  %56 = getelementptr inbounds nuw i8, ptr %.04048.i21.i, i64 %indvars.iv.i29.i
  %57 = load i8, ptr %56, align 1, !tbaa !8
  %58 = zext i8 %57 to i16
  %59 = getelementptr inbounds nuw i8, ptr %.04147.i22.i, i64 %indvars.iv.i29.i
  %60 = load i8, ptr %59, align 1, !tbaa !8
  %61 = zext i8 %60 to i64
  %62 = mul nuw nsw i64 %61, 36
  %indvars.iv.next.i30.i = add nuw nsw i64 %indvars.iv.i29.i, 1
  %63 = getelementptr inbounds nuw i8, ptr %.04147.i22.i, i64 %indvars.iv.next.i30.i
  %64 = load i8, ptr %63, align 1, !tbaa !8
  %65 = zext i8 %64 to i64
  %66 = add nuw nsw i64 %indvars.iv.i29.i, 2
  %67 = getelementptr inbounds nuw i8, ptr %.04147.i22.i, i64 %66
  %68 = load i8, ptr %67, align 1, !tbaa !8
  %69 = zext i8 %68 to i64
  %gep.i31.i = getelementptr i8, ptr %invariant.gep.i23.i, i64 %indvars.iv.i29.i
  %70 = load i8, ptr %gep.i31.i, align 1, !tbaa !8
  %71 = zext i8 %70 to i64
  %gep53.i32.i = getelementptr i8, ptr %invariant.gep.i23.i, i64 %indvars.iv.next.i30.i
  %72 = load i8, ptr %gep53.i32.i, align 1, !tbaa !8
  %73 = zext i8 %72 to i64
  %74 = mul nuw nsw i64 %73, 81
  %gep55.i33.i = getelementptr i8, ptr %invariant.gep.i23.i, i64 %66
  %75 = load i8, ptr %gep55.i33.i, align 1, !tbaa !8
  %76 = zext i8 %75 to i64
  %gep57.i34.i = getelementptr i8, ptr %invariant.gep56.i26.i, i64 %indvars.iv.i29.i
  %77 = load i8, ptr %gep57.i34.i, align 1, !tbaa !8
  %78 = zext i8 %77 to i64
  %gep59.i35.i = getelementptr i8, ptr %invariant.gep56.i26.i, i64 %indvars.iv.next.i30.i
  %79 = load i8, ptr %gep59.i35.i, align 1, !tbaa !8
  %80 = zext i8 %79 to i64
  %gep61.i36.i = getelementptr i8, ptr %invariant.gep56.i26.i, i64 %66
  %81 = load i8, ptr %gep61.i36.i, align 1, !tbaa !8
  %82 = zext i8 %81 to i64
  %reass.add.i37.i = add nuw nsw i64 %80, %76
  %reass.mul.i38.i = mul nuw nsw i64 %reass.add.i37.i, 9
  %reass.add42.i39.i = add nuw nsw i64 %78, %69
  %reass.mul43.i40.i = mul nuw nsw i64 %reass.add42.i39.i, 6
  %reass.add44.i41.i = add nuw nsw i64 %71, %65
  %reass.mul45.i42.i = mul nuw nsw i64 %reass.add44.i41.i, 54
  %83 = add nuw nsw i64 %62, 128
  %84 = add nuw nsw i64 %83, %74
  %85 = add nuw nsw i64 %84, %reass.mul45.i42.i
  %86 = add nuw nsw i64 %85, %82
  %87 = add nuw nsw i64 %86, %reass.mul43.i40.i
  %88 = add nuw nsw i64 %87, %reass.mul.i38.i
  %89 = lshr i64 %88, 8
  %90 = getelementptr inbounds nuw i8, ptr getelementptr inbounds nuw (i8, ptr @ff_crop_tab, i64 1024), i64 %89
  %91 = load i8, ptr %90, align 1, !tbaa !8
  %92 = zext i8 %91 to i16
  %93 = add nuw nsw i16 %58, 1
  %94 = add nuw nsw i16 %93, %92
  %95 = lshr i16 %94, 1
  %96 = trunc nuw i16 %95 to i8
  store i8 %96, ptr %56, align 1, !tbaa !8
  %exitcond.not.i43.i = icmp eq i64 %indvars.iv.next.i30.i, 8
  br i1 %exitcond.not.i43.i, label %97, label %55, !llvm.loop !24

97:                                               ; preds = %55
  %98 = getelementptr inbounds i8, ptr %.04048.i21.i, i64 %6
  %99 = add nuw nsw i32 %.049.i20.i, 1
  %exitcond51.not.i44.i = icmp eq i32 %99, 8
  br i1 %exitcond51.not.i44.i, label %avg_rv30_tpel8_hhvv_lowpass.exit45.i, label %.preheader.i19.i, !llvm.loop !25

avg_rv30_tpel8_hhvv_lowpass.exit45.i:             ; preds = %97
  %100 = shl nsw i32 %4, 3
  %101 = sext i32 %100 to i64
  %102 = getelementptr inbounds i8, ptr %1, i64 %101
  %103 = getelementptr inbounds i8, ptr %0, i64 %101
  br label %.preheader.i46.i

.preheader.i46.i:                                 ; preds = %146, %avg_rv30_tpel8_hhvv_lowpass.exit45.i
  %.049.i47.i = phi i32 [ 0, %avg_rv30_tpel8_hhvv_lowpass.exit45.i ], [ %148, %146 ]
  %.04048.i48.i = phi ptr [ %103, %avg_rv30_tpel8_hhvv_lowpass.exit45.i ], [ %147, %146 ]
  %.04147.i49.i = phi ptr [ %102, %avg_rv30_tpel8_hhvv_lowpass.exit45.i ], [ %invariant.gep.i50.i, %146 ]
  %invariant.gep.i50.i = getelementptr i8, ptr %.04147.i49.i, i64 %6
  %invariant.gep56.i53.i = getelementptr i8, ptr %.04147.i49.i, i64 %7
  br label %104

104:                                              ; preds = %104, %.preheader.i46.i
  %indvars.iv.i56.i = phi i64 [ 0, %.preheader.i46.i ], [ %indvars.iv.next.i57.i, %104 ]
  %105 = getelementptr inbounds nuw i8, ptr %.04048.i48.i, i64 %indvars.iv.i56.i
  %106 = load i8, ptr %105, align 1, !tbaa !8
  %107 = zext i8 %106 to i16
  %108 = getelementptr inbounds nuw i8, ptr %.04147.i49.i, i64 %indvars.iv.i56.i
  %109 = load i8, ptr %108, align 1, !tbaa !8
  %110 = zext i8 %109 to i64
  %111 = mul nuw nsw i64 %110, 36
  %indvars.iv.next.i57.i = add nuw nsw i64 %indvars.iv.i56.i, 1
  %112 = getelementptr inbounds nuw i8, ptr %.04147.i49.i, i64 %indvars.iv.next.i57.i
  %113 = load i8, ptr %112, align 1, !tbaa !8
  %114 = zext i8 %113 to i64
  %115 = add nuw nsw i64 %indvars.iv.i56.i, 2
  %116 = getelementptr inbounds nuw i8, ptr %.04147.i49.i, i64 %115
  %117 = load i8, ptr %116, align 1, !tbaa !8
  %118 = zext i8 %117 to i64
  %gep.i58.i = getelementptr i8, ptr %invariant.gep.i50.i, i64 %indvars.iv.i56.i
  %119 = load i8, ptr %gep.i58.i, align 1, !tbaa !8
  %120 = zext i8 %119 to i64
  %gep53.i59.i = getelementptr i8, ptr %invariant.gep.i50.i, i64 %indvars.iv.next.i57.i
  %121 = load i8, ptr %gep53.i59.i, align 1, !tbaa !8
  %122 = zext i8 %121 to i64
  %123 = mul nuw nsw i64 %122, 81
  %gep55.i60.i = getelementptr i8, ptr %invariant.gep.i50.i, i64 %115
  %124 = load i8, ptr %gep55.i60.i, align 1, !tbaa !8
  %125 = zext i8 %124 to i64
  %gep57.i61.i = getelementptr i8, ptr %invariant.gep56.i53.i, i64 %indvars.iv.i56.i
  %126 = load i8, ptr %gep57.i61.i, align 1, !tbaa !8
  %127 = zext i8 %126 to i64
  %gep59.i62.i = getelementptr i8, ptr %invariant.gep56.i53.i, i64 %indvars.iv.next.i57.i
  %128 = load i8, ptr %gep59.i62.i, align 1, !tbaa !8
  %129 = zext i8 %128 to i64
  %gep61.i63.i = getelementptr i8, ptr %invariant.gep56.i53.i, i64 %115
  %130 = load i8, ptr %gep61.i63.i, align 1, !tbaa !8
  %131 = zext i8 %130 to i64
  %reass.add.i64.i = add nuw nsw i64 %129, %125
  %reass.mul.i65.i = mul nuw nsw i64 %reass.add.i64.i, 9
  %reass.add42.i66.i = add nuw nsw i64 %127, %118
  %reass.mul43.i67.i = mul nuw nsw i64 %reass.add42.i66.i, 6
  %reass.add44.i68.i = add nuw nsw i64 %120, %114
  %reass.mul45.i69.i = mul nuw nsw i64 %reass.add44.i68.i, 54
  %132 = add nuw nsw i64 %111, 128
  %133 = add nuw nsw i64 %132, %123
  %134 = add nuw nsw i64 %133, %reass.mul45.i69.i
  %135 = add nuw nsw i64 %134, %131
  %136 = add nuw nsw i64 %135, %reass.mul43.i67.i
  %137 = add nuw nsw i64 %136, %reass.mul.i65.i
  %138 = lshr i64 %137, 8
  %139 = getelementptr inbounds nuw i8, ptr getelementptr inbounds nuw (i8, ptr @ff_crop_tab, i64 1024), i64 %138
  %140 = load i8, ptr %139, align 1, !tbaa !8
  %141 = zext i8 %140 to i16
  %142 = add nuw nsw i16 %107, 1
  %143 = add nuw nsw i16 %142, %141
  %144 = lshr i16 %143, 1
  %145 = trunc nuw i16 %144 to i8
  store i8 %145, ptr %105, align 1, !tbaa !8
  %exitcond.not.i70.i = icmp eq i64 %indvars.iv.next.i57.i, 8
  br i1 %exitcond.not.i70.i, label %146, label %104, !llvm.loop !24

146:                                              ; preds = %104
  %147 = getelementptr inbounds i8, ptr %.04048.i48.i, i64 %6
  %148 = add nuw nsw i32 %.049.i47.i, 1
  %exitcond51.not.i71.i = icmp eq i32 %148, 8
  br i1 %exitcond51.not.i71.i, label %avg_rv30_tpel8_hhvv_lowpass.exit72.i, label %.preheader.i46.i, !llvm.loop !25

avg_rv30_tpel8_hhvv_lowpass.exit72.i:             ; preds = %146
  %149 = getelementptr inbounds nuw i8, ptr %103, i64 8
  %150 = getelementptr inbounds nuw i8, ptr %102, i64 8
  br label %.preheader.i73.i

.preheader.i73.i:                                 ; preds = %193, %avg_rv30_tpel8_hhvv_lowpass.exit72.i
  %.049.i74.i = phi i32 [ 0, %avg_rv30_tpel8_hhvv_lowpass.exit72.i ], [ %195, %193 ]
  %.04048.i75.i = phi ptr [ %149, %avg_rv30_tpel8_hhvv_lowpass.exit72.i ], [ %194, %193 ]
  %.04147.i76.i = phi ptr [ %150, %avg_rv30_tpel8_hhvv_lowpass.exit72.i ], [ %invariant.gep.i77.i, %193 ]
  %invariant.gep.i77.i = getelementptr i8, ptr %.04147.i76.i, i64 %6
  %invariant.gep56.i80.i = getelementptr i8, ptr %.04147.i76.i, i64 %7
  br label %151

151:                                              ; preds = %151, %.preheader.i73.i
  %indvars.iv.i83.i = phi i64 [ 0, %.preheader.i73.i ], [ %indvars.iv.next.i84.i, %151 ]
  %152 = getelementptr inbounds nuw i8, ptr %.04048.i75.i, i64 %indvars.iv.i83.i
  %153 = load i8, ptr %152, align 1, !tbaa !8
  %154 = zext i8 %153 to i16
  %155 = getelementptr inbounds nuw i8, ptr %.04147.i76.i, i64 %indvars.iv.i83.i
  %156 = load i8, ptr %155, align 1, !tbaa !8
  %157 = zext i8 %156 to i64
  %158 = mul nuw nsw i64 %157, 36
  %indvars.iv.next.i84.i = add nuw nsw i64 %indvars.iv.i83.i, 1
  %159 = getelementptr inbounds nuw i8, ptr %.04147.i76.i, i64 %indvars.iv.next.i84.i
  %160 = load i8, ptr %159, align 1, !tbaa !8
  %161 = zext i8 %160 to i64
  %162 = add nuw nsw i64 %indvars.iv.i83.i, 2
  %163 = getelementptr inbounds nuw i8, ptr %.04147.i76.i, i64 %162
  %164 = load i8, ptr %163, align 1, !tbaa !8
  %165 = zext i8 %164 to i64
  %gep.i85.i = getelementptr i8, ptr %invariant.gep.i77.i, i64 %indvars.iv.i83.i
  %166 = load i8, ptr %gep.i85.i, align 1, !tbaa !8
  %167 = zext i8 %166 to i64
  %gep53.i86.i = getelementptr i8, ptr %invariant.gep.i77.i, i64 %indvars.iv.next.i84.i
  %168 = load i8, ptr %gep53.i86.i, align 1, !tbaa !8
  %169 = zext i8 %168 to i64
  %170 = mul nuw nsw i64 %169, 81
  %gep55.i87.i = getelementptr i8, ptr %invariant.gep.i77.i, i64 %162
  %171 = load i8, ptr %gep55.i87.i, align 1, !tbaa !8
  %172 = zext i8 %171 to i64
  %gep57.i88.i = getelementptr i8, ptr %invariant.gep56.i80.i, i64 %indvars.iv.i83.i
  %173 = load i8, ptr %gep57.i88.i, align 1, !tbaa !8
  %174 = zext i8 %173 to i64
  %gep59.i89.i = getelementptr i8, ptr %invariant.gep56.i80.i, i64 %indvars.iv.next.i84.i
  %175 = load i8, ptr %gep59.i89.i, align 1, !tbaa !8
  %176 = zext i8 %175 to i64
  %gep61.i90.i = getelementptr i8, ptr %invariant.gep56.i80.i, i64 %162
  %177 = load i8, ptr %gep61.i90.i, align 1, !tbaa !8
  %178 = zext i8 %177 to i64
  %reass.add.i91.i = add nuw nsw i64 %176, %172
  %reass.mul.i92.i = mul nuw nsw i64 %reass.add.i91.i, 9
  %reass.add42.i93.i = add nuw nsw i64 %174, %165
  %reass.mul43.i94.i = mul nuw nsw i64 %reass.add42.i93.i, 6
  %reass.add44.i95.i = add nuw nsw i64 %167, %161
  %reass.mul45.i96.i = mul nuw nsw i64 %reass.add44.i95.i, 54
  %179 = add nuw nsw i64 %158, 128
  %180 = add nuw nsw i64 %179, %170
  %181 = add nuw nsw i64 %180, %reass.mul45.i96.i
  %182 = add nuw nsw i64 %181, %178
  %183 = add nuw nsw i64 %182, %reass.mul43.i94.i
  %184 = add nuw nsw i64 %183, %reass.mul.i92.i
  %185 = lshr i64 %184, 8
  %186 = getelementptr inbounds nuw i8, ptr getelementptr inbounds nuw (i8, ptr @ff_crop_tab, i64 1024), i64 %185
  %187 = load i8, ptr %186, align 1, !tbaa !8
  %188 = zext i8 %187 to i16
  %189 = add nuw nsw i16 %154, 1
  %190 = add nuw nsw i16 %189, %188
  %191 = lshr i16 %190, 1
  %192 = trunc nuw i16 %191 to i8
  store i8 %192, ptr %152, align 1, !tbaa !8
  %exitcond.not.i97.i = icmp eq i64 %indvars.iv.next.i84.i, 8
  br i1 %exitcond.not.i97.i, label %193, label %151, !llvm.loop !24

193:                                              ; preds = %151
  %194 = getelementptr inbounds i8, ptr %.04048.i75.i, i64 %6
  %195 = add nuw nsw i32 %.049.i74.i, 1
  %exitcond51.not.i98.i = icmp eq i32 %195, 8
  br i1 %exitcond51.not.i98.i, label %avg_rv30_tpel16_hhvv_lowpass.exit, label %.preheader.i73.i, !llvm.loop !25

avg_rv30_tpel16_hhvv_lowpass.exit:                ; preds = %193
  ret void
}